target datalayout = "e-m:e-p270:32:32-p271:32:32-p272:64:64-i64:64-i128:128-f80:128-n8:16:32:64-S128"
target triple = "x86_64-pc-linux-gnu"

@.str.55 = private unnamed_addr constant [3 x i8] c"%d\00", align 1
@.str.287 = private unnamed_addr constant [2 x i8] c"M\00", align 1
@rm100 = internal constant [10 x ptr] [ptr @.str.259, ptr @.str.129, ptr @.str.288, ptr @.str.289, ptr @.str.136, ptr @.str.290, ptr @.str.291, ptr @.str.292, ptr @.str.293, ptr null], align 16
@rm10 = internal constant [10 x ptr] [ptr @.str.88, ptr @.str.294, ptr @.str.295, ptr @.str.296, ptr @.str.262, ptr @.str.297, ptr @.str.298, ptr @.str.299, ptr @.str.300, ptr null], align 16
@rm1 = internal constant [10 x ptr] [ptr @.str.97, ptr @.str.96, ptr @.str.95, ptr @.str.94, ptr @.str.93, ptr @.str.92, ptr @.str.91, ptr @.str.90, ptr @.str.89, ptr null], align 16

; Function Attrs: nounwind uwtable
define internal ptr @fill_str(ptr noundef %0, i32 noundef %1, i32 noundef %2) #0 {
  %4 = alloca ptr, align 8
  %5 = alloca i32, align 4
  %6 = alloca i32, align 4
  store ptr %0, ptr %4, align 8
  store i32 %1, ptr %5, align 4
  store i32 %2, ptr %6, align 4
  %7 = load ptr, ptr %4, align 8
  %8 = load i32, ptr %5, align 4
  %9 = trunc i32 %8 to i8
  %10 = load i32, ptr %6, align 4
  %11 = sext i32 %10 to i64
  call void @llvm.memset.p0.i64(ptr align 1 %7, i8 %9, i64 %11, i1 false)
  %12 = load ptr, ptr %4, align 8
  %13 = load i32, ptr %6, align 4
  %14 = sext i32 %13 to i64
  %15 = getelementptr inbounds i8, ptr %12, i64 %14
  store i8 0, ptr %15, align 1
  %16 = load ptr, ptr %4, align 8
  ret ptr %16
}

; Function Attrs: nounwind uwtable
define internal ptr @int_to_roman(i32 noundef %0) #0 {
  %2 = alloca ptr, align 8
  %3 = alloca i32, align 4
  %4 = alloca i32, align 4
  %5 = alloca i32, align 4
  %6 = alloca ptr, align 8
  %7 = alloca ptr, align 8
  %8 = alloca [12 x i8], align 1
  %9 = alloca i32, align 4
  store i32 %0, ptr %3, align 4
  call void @llvm.lifetime.start.p0(i64 4, ptr %4) #11
  call void @llvm.lifetime.start.p0(i64 4, ptr %5) #11
  call void @llvm.lifetime.start.p0(i64 8, ptr %6) #11
  call void @llvm.lifetime.start.p0(i64 8, ptr %7) #11
  call void @llvm.lifetime.start.p0(i64 12, ptr %8) #11
  %10 = call ptr @palloc(i64 noundef 16)
  store ptr %10, ptr %7, align 8
  %11 = load ptr, ptr %7, align 8
  store i8 0, ptr %11, align 1
  %12 = load i32, ptr %3, align 4
  %13 = icmp sgt i32 %12, 3999
  br i1 %13, label %17, label %14

14:                                               ; preds = %1
  %15 = load i32, ptr %3, align 4
  %16 = icmp slt i32 %15, 1
  br i1 %16, label %17, label %21

17:                                               ; preds = %14, %1
  %18 = load ptr, ptr %7, align 8
  %19 = call ptr @fill_str(ptr noundef %18, i32 noundef 35, i32 noundef 15)
  %20 = load ptr, ptr %7, align 8
  store ptr %20, ptr %2, align 8
  store i32 1, ptr %9, align 4
  br label %79

21:                                               ; preds = %14
  %22 = getelementptr inbounds [12 x i8], ptr %8, i64 0, i64 0
  %23 = load i32, ptr %3, align 4
  %24 = call i32 (ptr, i64, ptr, ...) @pg_snprintf(ptr noundef %22, i64 noundef 12, ptr noundef @.str.55, i32 noundef %23)
  store i32 %24, ptr %4, align 4
  %25 = getelementptr inbounds [12 x i8], ptr %8, i64 0, i64 0
  store ptr %25, ptr %6, align 8
  br label %26

26:                                               ; preds = %72, %21
  %27 = load ptr, ptr %6, align 8
  %28 = load i8, ptr %27, align 1
  %29 = sext i8 %28 to i32
  %30 = icmp ne i32 %29, 0
  br i1 %30, label %31, label %77

31:                                               ; preds = %26
  %32 = load ptr, ptr %6, align 8
  %33 = load i8, ptr %32, align 1
  %34 = sext i8 %33 to i32
  %35 = sub i32 %34, 49
  store i32 %35, ptr %5, align 4
  %36 = load i32, ptr %5, align 4
  %37 = icmp slt i32 %36, 0
  br i1 %37, label %38, label %39

38:                                               ; preds = %31
  br label %72

39:                                               ; preds = %31
  %40 = load i32, ptr %4, align 4
  switch i32 %40, label %71 [
    i32 4, label %41
    i32 3, label %50
    i32 2, label %57
    i32 1, label %64
  ]

41:                                               ; preds = %39
  br label %42

42:                                               ; preds = %46, %41
  %43 = load i32, ptr %5, align 4
  %44 = add i32 %43, -1
  store i32 %44, ptr %5, align 4
  %45 = icmp sge i32 %43, 0
  br i1 %45, label %46, label %49

46:                                               ; preds = %42
  %47 = load ptr, ptr %7, align 8
  %48 = call ptr @strcat(ptr noundef %47, ptr noundef @.str.287) #11
  br label %42, !llvm.loop !16

49:                                               ; preds = %42
  br label %71

50:                                               ; preds = %39
  %51 = load ptr, ptr %7, align 8
  %52 = load i32, ptr %5, align 4
  %53 = sext i32 %52 to i64
  %54 = getelementptr inbounds [10 x ptr], ptr @rm100, i64 0, i64 %53
  %55 = load ptr, ptr %54, align 8
  %56 = call ptr @strcat(ptr noundef %51, ptr noundef %55) #11
  br label %71

57:                                               ; preds = %39
  %58 = load ptr, ptr %7, align 8
  %59 = load i32, ptr %5, align 4
  %60 = sext i32 %59 to i64
  %61 = getelementptr inbounds [10 x ptr], ptr @rm10, i64 0, i64 %60
  %62 = load ptr, ptr %61, align 8
  %63 = call ptr @strcat(ptr noundef %58, ptr noundef %62) #11
  br label %71

64:                                               ; preds = %39
  %65 = load ptr, ptr %7, align 8
  %66 = load i32, ptr %5, align 4
  %67 = sext i32 %66 to i64
  %68 = getelementptr inbounds [10 x ptr], ptr @rm1, i64 0, i64 %67
  %69 = load ptr, ptr %68, align 8
  %70 = call ptr @strcat(ptr noundef %65, ptr noundef %69) #11
  br label %71

71:                                               ; preds = %39, %64, %57, %50, %49
  br label %72

72:                                               ; preds = %71, %38
  %73 = load ptr, ptr %6, align 8
  %74 = getelementptr inbounds nuw i8, ptr %73, i32 1
  store ptr %74, ptr %6, align 8
  %75 = load i32, ptr %4, align 4
  %76 = add i32 %75, -1
  store i32 %76, ptr %4, align 4
  br label %26, !llvm.loop !17

77:                                               ; preds = %26
  %78 = load ptr, ptr %7, align 8
  store ptr %78, ptr %2, align 8
  store i32 1, ptr %9, align 4
  br label %79

79:                                               ; preds = %77, %17
  call void @llvm.lifetime.end.p0(i64 12, ptr %8) #11
  call void @llvm.lifetime.end.p0(i64 8, ptr %7) #11
  call void @llvm.lifetime.end.p0(i64 8, ptr %6) #11
  call void @llvm.lifetime.end.p0(i64 4, ptr %5) #11
  call void @llvm.lifetime.end.p0(i64 4, ptr %4) #11
  %80 = load ptr, ptr %2, align 8
  ret ptr %80
}