; Function Attrs: nounwind uwtable
define internal fastcc noundef ptr @int_to_roman(i32 noundef %0) unnamed_addr #0 {
  %2 = alloca [12 x i8], align 1
  call void @llvm.lifetime.start.p0(i64 12, ptr nonnull %2) #18
  %3 = tail call ptr @palloc(i64 noundef 16) #18
  store i8 0, ptr %3, align 1
  %4 = add i32 %0, -4000
  %or.cond = icmp ult i32 %4, -3999
  br i1 %or.cond, label %5, label %7

5:                                                ; preds = %1
  tail call void @llvm.memset.p0.i64(ptr noundef nonnull align 1 dereferenceable(15) %3, i8 35, i64 15, i1 false)
  %6 = getelementptr inbounds nuw i8, ptr %3, i64 15
  store i8 0, ptr %6, align 1
  br label %.loopexit27

7:                                                ; preds = %1
  %8 = call i32 (ptr, i64, ptr, ...) @pg_snprintf(ptr noundef nonnull %2, i64 noundef 12, ptr noundef nonnull @.str.55, i32 noundef %0) #18
  %9 = load i8, ptr %2, align 1
  %.not29 = icmp eq i8 %9, 0
  br i1 %.not29, label %.loopexit27, label %.lr.ph32

.lr.ph32:                                         ; preds = %7, %.loopexit
  %10 = phi i8 [ %25, %.loopexit ], [ %9, %7 ]
  %.02231 = phi ptr [ %23, %.loopexit ], [ %2, %7 ]
  %.02430 = phi i32 [ %24, %.loopexit ], [ %8, %7 ]
  %11 = sext i8 %10 to i32
  %12 = add nsw i32 %11, -49
  %13 = icmp slt i8 %10, 49
  br i1 %13, label %.loopexit, label %14

14:                                               ; preds = %.lr.ph32
  switch i32 %.02430, label %.loopexit [
    i32 4, label %.lr.ph
    i32 3, label %.loopexit.sink.split
    i32 2, label %17
    i32 1, label %18
  ]

.lr.ph:                                           ; preds = %14, %.lr.ph
  %.02328 = phi i32 [ %15, %.lr.ph ], [ %12, %14 ]
  %15 = add nsw i32 %.02328, -1
  %strlen = call i64 @strlen(ptr nonnull dereferenceable(1) %3)
  %endptr = getelementptr inbounds i8, ptr %3, i64 %strlen
  store i16 77, ptr %endptr, align 1
  %16 = icmp sgt i32 %.02328, 0
  br i1 %16, label %.lr.ph, label %.loopexit, !llvm.loop !32

17:                                               ; preds = %14
  br label %.loopexit.sink.split

18:                                               ; preds = %14
  br label %.loopexit.sink.split

.loopexit.sink.split:                             ; preds = %14, %18, %17
  %rm100.sink = phi ptr [ @rm10, %17 ], [ @rm1, %18 ], [ @rm100, %14 ]
  %19 = zext nneg i32 %12 to i64
  %20 = getelementptr inbounds nuw [10 x ptr], ptr %rm100.sink, i64 0, i64 %19
  %21 = load ptr, ptr %20, align 8
  %22 = call ptr @strcat(ptr noundef nonnull dereferenceable(1) %3, ptr noundef nonnull dereferenceable(1) %21) #18
  br label %.loopexit

.loopexit:                                        ; preds = %.lr.ph, %.loopexit.sink.split, %14, %.lr.ph32
  %23 = getelementptr inbounds nuw i8, ptr %.02231, i64 1
  %24 = add i32 %.02430, -1
  %25 = load i8, ptr %23, align 1
  %.not = icmp eq i8 %25, 0
  br i1 %.not, label %.loopexit27, label %.lr.ph32, !llvm.loop !33

.loopexit27:                                      ; preds = %.loopexit, %7, %5
  call void @llvm.lifetime.end.p0(i64 12, ptr nonnull %2) #18
  ret ptr %3
}